target datalayout = "e-m:e-p270:32:32-p271:32:32-p272:64:64-i64:64-i128:128-f80:128-n8:16:32:64-S128"
target triple = "x86_64-pc-linux-gnu"

@.str = private unnamed_addr constant [9 x i8] c"UTF-32BE\00", align 1
@OnigEncodingUTF32_BE = dso_local global { ptr, ptr, i32, i32, ptr, ptr, ptr, ptr, ptr, ptr, ptr, ptr, ptr, ptr, ptr, ptr, ptr, ptr, ptr, i32, i32, i32, [4 x i8] } { ptr @utf32be_mbc_enc_len, ptr @.str, i32 4, i32 4, ptr @utf32be_is_mbc_newline, ptr @utf32be_mbc_to_code, ptr @utf32be_code_to_mbclen, ptr @utf32be_code_to_mbc, ptr @utf32be_mbc_case_fold, ptr @onigenc_unicode_apply_all_case_fold, ptr @utf32be_get_case_fold_codes_by_str, ptr @onigenc_unicode_property_name_to_ctype, ptr @onigenc_unicode_is_code_ctype, ptr @onigenc_utf16_32_get_ctype_code_range, ptr @utf32be_left_adjust_char_head, ptr @onigenc_always_false_is_allowed_reverse_match, ptr null, ptr null, ptr @is_valid_mbc_string, i32 18, i32 0, i32 0, [4 x i8] zeroinitializer }, align 8
@OnigEncAsciiToLowerCaseTable = external constant [0 x i8], align 1

; Function Attrs: nounwind uwtable
define internal i32 @utf32be_mbc_enc_len(ptr noundef %0) #0 {
  %2 = alloca ptr, align 8
  store ptr %0, ptr %2, align 8, !tbaa !4
  ret i32 4
}

; Function Attrs: nounwind uwtable
define internal i32 @utf32be_is_mbc_newline(ptr noundef %0, ptr noundef %1) #0 {
  %3 = alloca i32, align 4
  %4 = alloca ptr, align 8
  %5 = alloca ptr, align 8
  store ptr %0, ptr %4, align 8, !tbaa !4
  store ptr %1, ptr %5, align 8, !tbaa !4
  %6 = load ptr, ptr %4, align 8, !tbaa !4
  %7 = getelementptr inbounds i8, ptr %6, i64 3
  %8 = load ptr, ptr %5, align 8, !tbaa !4
  %9 = icmp ult ptr %7, %8
  br i1 %9, label %10, label %35

10:                                               ; preds = %2
  %11 = load ptr, ptr %4, align 8, !tbaa !4
  %12 = getelementptr inbounds i8, ptr %11, i64 3
  %13 = load i8, ptr %12, align 1, !tbaa !9
  %14 = zext i8 %13 to i32
  %15 = icmp eq i32 %14, 10
  br i1 %15, label %16, label %34

16:                                               ; preds = %10
  %17 = load ptr, ptr %4, align 8, !tbaa !4
  %18 = getelementptr inbounds i8, ptr %17, i64 2
  %19 = load i8, ptr %18, align 1, !tbaa !9
  %20 = zext i8 %19 to i32
  %21 = icmp eq i32 %20, 0
  br i1 %21, label %22, label %34

22:                                               ; preds = %16
  %23 = load ptr, ptr %4, align 8, !tbaa !4
  %24 = getelementptr inbounds i8, ptr %23, i64 1
  %25 = load i8, ptr %24, align 1, !tbaa !9
  %26 = zext i8 %25 to i32
  %27 = icmp eq i32 %26, 0
  br i1 %27, label %28, label %34

28:                                               ; preds = %22
  %29 = load ptr, ptr %4, align 8, !tbaa !4
  %30 = load i8, ptr %29, align 1, !tbaa !9
  %31 = zext i8 %30 to i32
  %32 = icmp eq i32 %31, 0
  br i1 %32, label %33, label %34

33:                                               ; preds = %28
  store i32 1, ptr %3, align 4
  br label %36

34:                                               ; preds = %28, %22, %16, %10
  br label %35

35:                                               ; preds = %34, %2
  store i32 0, ptr %3, align 4
  br label %36

36:                                               ; preds = %35, %33
  %37 = load i32, ptr %3, align 4
  ret i32 %37
}

; Function Attrs: nounwind uwtable
define internal i32 @utf32be_mbc_to_code(ptr noundef %0, ptr noundef %1) #0 {
  %3 = alloca ptr, align 8
  %4 = alloca ptr, align 8
  %5 = alloca i32, align 4
  store ptr %0, ptr %3, align 8, !tbaa !4
  store ptr %1, ptr %4, align 8, !tbaa !4
  call void @llvm.lifetime.start.p0(i64 4, ptr %5) #3
  %6 = load ptr, ptr %3, align 8, !tbaa !4
  %7 = getelementptr inbounds i8, ptr %6, i64 0
  %8 = load i8, ptr %7, align 1, !tbaa !9
  %9 = zext i8 %8 to i32
  %10 = and i32 %9, 127
  %11 = mul nsw i32 %10, 256
  %12 = load ptr, ptr %3, align 8, !tbaa !4
  %13 = getelementptr inbounds i8, ptr %12, i64 1
  %14 = load i8, ptr %13, align 1, !tbaa !9
  %15 = zext i8 %14 to i32
  %16 = add nsw i32 %11, %15
  %17 = mul nsw i32 %16, 256
  %18 = load ptr, ptr %3, align 8, !tbaa !4
  %19 = getelementptr inbounds i8, ptr %18, i64 2
  %20 = load i8, ptr %19, align 1, !tbaa !9
  %21 = zext i8 %20 to i32
  %22 = add nsw i32 %17, %21
  %23 = mul nsw i32 %22, 256
  %24 = load ptr, ptr %3, align 8, !tbaa !4
  %25 = getelementptr inbounds i8, ptr %24, i64 3
  %26 = load i8, ptr %25, align 1, !tbaa !9
  %27 = zext i8 %26 to i32
  %28 = add nsw i32 %23, %27
  store i32 %28, ptr %5, align 4, !tbaa !10
  %29 = load i32, ptr %5, align 4, !tbaa !10
  call void @llvm.lifetime.end.p0(i64 4, ptr %5) #3
  ret i32 %29
}

; Function Attrs: nounwind uwtable
define internal i32 @utf32be_code_to_mbclen(i32 noundef %0) #0 {
  %2 = alloca i32, align 4
  store i32 %0, ptr %2, align 4, !tbaa !10
  ret i32 4
}

; Function Attrs: nounwind uwtable
define internal i32 @utf32be_code_to_mbc(i32 noundef %0, ptr noundef %1) #0 {
  %3 = alloca i32, align 4
  %4 = alloca ptr, align 8
  %5 = alloca ptr, align 8
  store i32 %0, ptr %3, align 4, !tbaa !10
  store ptr %1, ptr %4, align 8, !tbaa !4
  call void @llvm.lifetime.start.p0(i64 8, ptr %5) #3
  %6 = load ptr, ptr %4, align 8, !tbaa !4
  store ptr %6, ptr %5, align 8, !tbaa !4
  %7 = load i32, ptr %3, align 4, !tbaa !10
  %8 = and i32 %7, -16777216
  %9 = lshr i32 %8, 24
  %10 = trunc i32 %9 to i8
  %11 = load ptr, ptr %5, align 8, !tbaa !4
  %12 = getelementptr inbounds nuw i8, ptr %11, i32 1
  store ptr %12, ptr %5, align 8, !tbaa !4
  store i8 %10, ptr %11, align 1, !tbaa !9
  %13 = load i32, ptr %3, align 4, !tbaa !10
  %14 = and i32 %13, 16711680
  %15 = lshr i32 %14, 16
  %16 = trunc i32 %15 to i8
  %17 = load ptr, ptr %5, align 8, !tbaa !4
  %18 = getelementptr inbounds nuw i8, ptr %17, i32 1
  store ptr %18, ptr %5, align 8, !tbaa !4
  store i8 %16, ptr %17, align 1, !tbaa !9
  %19 = load i32, ptr %3, align 4, !tbaa !10
  %20 = and i32 %19, 65280
  %21 = lshr i32 %20, 8
  %22 = trunc i32 %21 to i8
  %23 = load ptr, ptr %5, align 8, !tbaa !4
  %24 = getelementptr inbounds nuw i8, ptr %23, i32 1
  store ptr %24, ptr %5, align 8, !tbaa !4
  store i8 %22, ptr %23, align 1, !tbaa !9
  %25 = load i32, ptr %3, align 4, !tbaa !10
  %26 = and i32 %25, 255
  %27 = trunc i32 %26 to i8
  %28 = load ptr, ptr %5, align 8, !tbaa !4
  %29 = getelementptr inbounds nuw i8, ptr %28, i32 1
  store ptr %29, ptr %5, align 8, !tbaa !4
  store i8 %27, ptr %28, align 1, !tbaa !9
  call void @llvm.lifetime.end.p0(i64 8, ptr %5) #3
  ret i32 4
}

; Function Attrs: nounwind uwtable
define internal i32 @utf32be_mbc_case_fold(i32 noundef %0, ptr noundef %1, ptr noundef %2, ptr noundef %3) #0 {
  %5 = alloca i32, align 4
  %6 = alloca i32, align 4
  %7 = alloca ptr, align 8
  %8 = alloca ptr, align 8
  %9 = alloca ptr, align 8
  %10 = alloca ptr, align 8
  %11 = alloca i32, align 4
  store i32 %0, ptr %6, align 4, !tbaa !10
  store ptr %1, ptr %7, align 8, !tbaa !12
  store ptr %2, ptr %8, align 8, !tbaa !4
  store ptr %3, ptr %9, align 8, !tbaa !4
  call void @llvm.lifetime.start.p0(i64 8, ptr %10) #3
  %12 = load ptr, ptr %7, align 8, !tbaa !12
  %13 = load ptr, ptr %12, align 8, !tbaa !4
  store ptr %13, ptr %10, align 8, !tbaa !4
  %14 = load ptr, ptr %10, align 8, !tbaa !4
  %15 = getelementptr inbounds i8, ptr %14, i64 3
  %16 = load i8, ptr %15, align 1, !tbaa !9
  %17 = zext i8 %16 to i32
  %18 = icmp slt i32 %17, 128
  br i1 %18, label %19, label %53

19:                                               ; preds = %4
  %20 = load ptr, ptr %10, align 8, !tbaa !4
  %21 = getelementptr inbounds i8, ptr %20, i64 2
  %22 = load i8, ptr %21, align 1, !tbaa !9
  %23 = zext i8 %22 to i32
  %24 = icmp eq i32 %23, 0
  br i1 %24, label %25, label %53

25:                                               ; preds = %19
  %26 = load ptr, ptr %10, align 8, !tbaa !4
  %27 = getelementptr inbounds i8, ptr %26, i64 1
  %28 = load i8, ptr %27, align 1, !tbaa !9
  %29 = zext i8 %28 to i32
  %30 = icmp eq i32 %29, 0
  br i1 %30, label %31, label %53

31:                                               ; preds = %25
  %32 = load ptr, ptr %10, align 8, !tbaa !4
  %33 = load i8, ptr %32, align 1, !tbaa !9
  %34 = zext i8 %33 to i32
  %35 = icmp eq i32 %34, 0
  br i1 %35, label %36, label %53

36:                                               ; preds = %31
  %37 = load ptr, ptr %9, align 8, !tbaa !4
  %38 = getelementptr inbounds nuw i8, ptr %37, i32 1
  store ptr %38, ptr %9, align 8, !tbaa !4
  store i8 0, ptr %37, align 1, !tbaa !9
  %39 = load ptr, ptr %9, align 8, !tbaa !4
  %40 = getelementptr inbounds nuw i8, ptr %39, i32 1
  store ptr %40, ptr %9, align 8, !tbaa !4
  store i8 0, ptr %39, align 1, !tbaa !9
  %41 = load ptr, ptr %9, align 8, !tbaa !4
  %42 = getelementptr inbounds nuw i8, ptr %41, i32 1
  store ptr %42, ptr %9, align 8, !tbaa !4
  store i8 0, ptr %41, align 1, !tbaa !9
  %43 = load ptr, ptr %10, align 8, !tbaa !4
  %44 = getelementptr inbounds i8, ptr %43, i64 3
  %45 = load i8, ptr %44, align 1, !tbaa !9
  %46 = zext i8 %45 to i64
  %47 = getelementptr inbounds nuw [0 x i8], ptr @OnigEncAsciiToLowerCaseTable, i64 0, i64 %46
  %48 = load i8, ptr %47, align 1, !tbaa !9
  %49 = load ptr, ptr %9, align 8, !tbaa !4
  store i8 %48, ptr %49, align 1, !tbaa !9
  %50 = load ptr, ptr %7, align 8, !tbaa !12
  %51 = load ptr, ptr %50, align 8, !tbaa !4
  %52 = getelementptr inbounds i8, ptr %51, i64 4
  store ptr %52, ptr %50, align 8, !tbaa !4
  store i32 4, ptr %5, align 4
  store i32 1, ptr %11, align 4
  br label %59

53:                                               ; preds = %31, %25, %19, %4
  %54 = load i32, ptr %6, align 4, !tbaa !10
  %55 = load ptr, ptr %7, align 8, !tbaa !12
  %56 = load ptr, ptr %8, align 8, !tbaa !4
  %57 = load ptr, ptr %9, align 8, !tbaa !4
  %58 = call i32 @onigenc_unicode_mbc_case_fold(ptr noundef @OnigEncodingUTF32_BE, i32 noundef %54, ptr noundef %55, ptr noundef %56, ptr noundef %57)
  store i32 %58, ptr %5, align 4
  store i32 1, ptr %11, align 4
  br label %59

59:                                               ; preds = %53, %36
  call void @llvm.lifetime.end.p0(i64 8, ptr %10) #3
  %60 = load i32, ptr %5, align 4
  ret i32 %60
}

declare i32 @onigenc_unicode_apply_all_case_fold(i32 noundef, ptr noundef, ptr noundef) #1

; Function Attrs: nounwind uwtable
define internal i32 @utf32be_get_case_fold_codes_by_str(i32 noundef %0, ptr noundef %1, ptr noundef %2, ptr noundef %3) #0 {
  %5 = alloca i32, align 4
  %6 = alloca ptr, align 8
  %7 = alloca ptr, align 8
  %8 = alloca ptr, align 8
  store i32 %0, ptr %5, align 4, !tbaa !10
  store ptr %1, ptr %6, align 8, !tbaa !4
  store ptr %2, ptr %7, align 8, !tbaa !4
  store ptr %3, ptr %8, align 8, !tbaa !14
  %9 = load i32, ptr %5, align 4, !tbaa !10
  %10 = load ptr, ptr %6, align 8, !tbaa !4
  %11 = load ptr, ptr %7, align 8, !tbaa !4
  %12 = load ptr, ptr %8, align 8, !tbaa !14
  %13 = call i32 @onigenc_unicode_get_case_fold_codes_by_str(ptr noundef @OnigEncodingUTF32_BE, i32 noundef %9, ptr noundef %10, ptr noundef %11, ptr noundef %12)
  ret i32 %13
}

declare i32 @onigenc_unicode_property_name_to_ctype(ptr noundef, ptr noundef, ptr noundef) #1

declare i32 @onigenc_unicode_is_code_ctype(i32 noundef, i32 noundef) #1

declare i32 @onigenc_utf16_32_get_ctype_code_range(i32 noundef, ptr noundef, ptr noundef) #1

; Function Attrs: nounwind uwtable
define internal ptr @utf32be_left_adjust_char_head(ptr noundef %0, ptr noundef %1) #0 {
  %3 = alloca ptr, align 8
  %4 = alloca ptr, align 8
  %5 = alloca ptr, align 8
  %6 = alloca i32, align 4
  %7 = alloca i32, align 4
  store ptr %0, ptr %4, align 8, !tbaa !4
  store ptr %1, ptr %5, align 8, !tbaa !4
  call void @llvm.lifetime.start.p0(i64 4, ptr %6) #3
  %8 = load ptr, ptr %5, align 8, !tbaa !4
  %9 = load ptr, ptr %4, align 8, !tbaa !4
  %10 = icmp ule ptr %8, %9
  br i1 %10, label %11, label %13

11:                                               ; preds = %2
  %12 = load ptr, ptr %5, align 8, !tbaa !4
  store ptr %12, ptr %3, align 8
  store i32 1, ptr %7, align 4
  br label %26

13:                                               ; preds = %2
  %14 = load ptr, ptr %5, align 8, !tbaa !4
  %15 = load ptr, ptr %4, align 8, !tbaa !4
  %16 = ptrtoint ptr %14 to i64
  %17 = ptrtoint ptr %15 to i64
  %18 = sub i64 %16, %17
  %19 = srem i64 %18, 4
  %20 = trunc i64 %19 to i32
  store i32 %20, ptr %6, align 4, !tbaa !10
  %21 = load ptr, ptr %5, align 8, !tbaa !4
  %22 = load i32, ptr %6, align 4, !tbaa !10
  %23 = sext i32 %22 to i64
  %24 = sub i64 0, %23
  %25 = getelementptr inbounds i8, ptr %21, i64 %24
  store ptr %25, ptr %3, align 8
  store i32 1, ptr %7, align 4
  br label %26

26:                                               ; preds = %13, %11
  call void @llvm.lifetime.end.p0(i64 4, ptr %6) #3
  %27 = load ptr, ptr %3, align 8
  ret ptr %27
}

declare i32 @onigenc_always_false_is_allowed_reverse_match(ptr noundef, ptr noundef) #1

; Function Attrs: nounwind uwtable
define internal i32 @is_valid_mbc_string(ptr noundef %0, ptr noundef %1) #0 {
  %3 = alloca ptr, align 8
  %4 = alloca ptr, align 8
  store ptr %0, ptr %3, align 8, !tbaa !4
  store ptr %1, ptr %4, align 8, !tbaa !4
  %5 = load ptr, ptr %3, align 8, !tbaa !4
  %6 = load ptr, ptr %4, align 8, !tbaa !4
  %7 = call i32 @onigenc_length_check_is_valid_mbc_string(ptr noundef @OnigEncodingUTF32_BE, ptr noundef %5, ptr noundef %6)
  ret i32 %7
}

; Function Attrs: nocallback nofree nosync nounwind willreturn memory(argmem: readwrite)
declare void @llvm.lifetime.start.p0(i64 immarg, ptr captures(none)) #2

; Function Attrs: nocallback nofree nosync nounwind willreturn memory(argmem: readwrite)
declare void @llvm.lifetime.end.p0(i64 immarg, ptr captures(none)) #2

declare i32 @onigenc_unicode_mbc_case_fold(ptr noundef, i32 noundef, ptr noundef, ptr noundef, ptr noundef) #1

declare i32 @onigenc_unicode_get_case_fold_codes_by_str(ptr noundef, i32 noundef, ptr noundef, ptr noundef, ptr noundef) #1

declare i32 @onigenc_length_check_is_valid_mbc_string(ptr noundef, ptr noundef, ptr noundef) #1


!llvm.module.flags = !{!0, !1, !2, !3}

!0 = !{i32 1, !"wchar_size", i32 4}
!1 = !{i32 8, !"PIC Level", i32 2}
!2 = !{i32 7, !"PIE Level", i32 2}
!3 = !{i32 7, !"uwtable", i32 2}
!4 = !{!5, !5, i64 0}
!5 = !{!"p1 omnipotent char", !6, i64 0}
!6 = !{!"any pointer", !7, i64 0}
!7 = !{!"omnipotent char", !8, i64 0}
!8 = !{!"Simple C/C++ TBAA"}
!9 = !{!7, !7, i64 0}
!10 = !{!11, !11, i64 0}
!11 = !{!"int", !7, i64 0}
!12 = !{!13, !13, i64 0}
!13 = !{!"p2 omnipotent char", !6, i64 0}
!14 = !{!6, !6, i64 0}
